target datalayout = "e-m:e-p270:32:32-p271:32:32-p272:64:64-i64:64-i128:128-f80:128-n8:16:32:64-S128"
target triple = "x86_64-pc-linux-gnu"

%union.SourceSpan = type { i64 }
%struct.Expr_ = type { ptr, %union.SourceSpan, i16, %union.anon.61 }
%union.anon.61 = type { %struct.ExprAnySwitch }
%struct.ExprAnySwitch = type { i8, %union.anon.63 }
%union.anon.63 = type { %struct.anon.64 }
%struct.anon.64 = type { ptr, %union.SourceSpan, ptr }

@.str.33 = private unnamed_addr constant [36 x i8] c"FATAL ERROR %s -> in %s @ in %s:%d \00", align 1
@.str.34 = private unnamed_addr constant [22 x i8] c"Should be unreachable\00", align 1
@.str.35 = private unnamed_addr constant [110 x i8] c"generated/home/dtcxzyw/WorkSpace/Projects/compilers/llvm-opt-benchmark/bench/c3c/c3c/src/compiler/sema_expr.c\00", align 1
@__func__.sema_constant_fold_ops = private unnamed_addr constant [23 x i8] c"sema_constant_fold_ops\00", align 1

; Function Attrs: nounwind uwtable
define internal zeroext i1 @sema_constant_fold_ops(ptr noundef %0) #0 {
  %2 = alloca ptr, align 8
  %3 = alloca i1, align 1
  %4 = alloca ptr, align 8
  store ptr %0, ptr %4, align 8
  %5 = load ptr, ptr %4, align 8
  store ptr %5, ptr %2, align 8
  %6 = load ptr, ptr %2, align 8
  %7 = getelementptr inbounds %struct.Expr_, ptr %6, i32 0, i32 2
  %8 = load i16, ptr %7, align 8
  %9 = and i16 %8, 255
  %10 = zext i16 %9 to i32
  %11 = icmp eq i32 %10, 14
  br i1 %11, label %13, label %12

12:                                               ; preds = %1
  store i1 false, ptr %3, align 1
  br label %23

13:                                               ; preds = %1
  %14 = load ptr, ptr %4, align 8
  %15 = getelementptr inbounds %struct.Expr_, ptr %14, i32 0, i32 3
  %16 = load i16, ptr %15, align 8
  %17 = and i16 %16, 255
  %18 = zext i16 %17 to i32
  switch i32 %18, label %21 [
    i32 1, label %19
    i32 0, label %19
    i32 2, label %19
    i32 3, label %19
    i32 4, label %19
    i32 6, label %19
    i32 7, label %19
    i32 8, label %19
    i32 5, label %19
    i32 11, label %19
    i32 9, label %20
    i32 10, label %20
  ]

19:                                               ; preds = %13, %13, %13, %13, %13, %13, %13, %13, %13, %13
  store i1 true, ptr %3, align 1
  br label %23

20:                                               ; preds = %13, %13
  store i1 false, ptr %3, align 1
  br label %23

21:                                               ; preds = %13
  br label %22

22:                                               ; preds = %21
  call void (ptr, ...) @error_exit(ptr noundef @.str.33, ptr noundef @.str.34, ptr noundef @__func__.sema_constant_fold_ops, ptr noundef @.str.35, i32 noundef 224) #6
  unreachable

23:                                               ; preds = %20, %19, %12
  %24 = load i1, ptr %3, align 1
  ret i1 %24
}