; Function Attrs: nounwind uwtable
define internal fastcc noundef zeroext i1 @sema_constant_fold_ops(ptr nocapture noundef readonly %0) unnamed_addr #0 {
  %2 = getelementptr inbounds i8, ptr %0, i64 16
  %3 = load i16, ptr %2, align 8
  %4 = and i16 %3, 255
  %5 = icmp eq i16 %4, 14
  br i1 %5, label %6, label %12

6:                                                ; preds = %1
  %7 = getelementptr inbounds i8, ptr %0, i64 24
  %8 = load i16, ptr %7, align 8
  %trunc = trunc i16 %8 to i8
  %9 = icmp ult i8 %trunc, 12
  br i1 %9, label %switch.lookup, label %10

10:                                               ; preds = %6
  tail call void (ptr, ...) @error_exit(ptr noundef nonnull @.str.33, ptr noundef nonnull @.str.34, ptr noundef nonnull @__func__.sema_constant_fold_ops, ptr noundef nonnull @.str.35, i32 noundef 224) #14
  unreachable

switch.lookup:                                    ; preds = %6
  %11 = trunc i16 %8 to i12
  %switch.cast = and i12 %11, 15
  %switch.downshift = lshr i12 -1537, %switch.cast
  %switch.masked = trunc i12 %switch.downshift to i1
  br label %12

12:                                               ; preds = %switch.lookup, %1
  %.0 = phi i1 [ false, %1 ], [ %switch.masked, %switch.lookup ]
  ret i1 %.0
}